target datalayout = "e-m:e-p270:32:32-p271:32:32-p272:64:64-i64:64-i128:128-f80:128-n8:16:32:64-S128"
target triple = "x86_64-pc-linux-gnu"

%struct.PJconsts = type { ptr, ptr, ptr, ptr, ptr, ptr, ptr, ptr, ptr, ptr, ptr, ptr, i32, ptr, ptr, ptr, ptr, ptr, ptr, ptr, ptr, double, double, double, double, double, double, double, double, double, double, double, double, double, double, double, double, double, double, double, double, double, double, i32, i32, i32, i32, i32, i32, i32, i32, i32, i32, i32, ptr, ptr, ptr, ptr, ptr, ptr, double, double, double, double, double, double, double, double, double, double, double, i32, [7 x double], i32, ptr, ptr, double, double, i32, [4 x i8], %"class.std::shared_ptr", i8, double, i8, %"class.std::__cxx11::basic_string", %"class.std::__cxx11::basic_string", %"class.std::__cxx11::basic_string", i8, %"class.std::vector", i32, %"class.std::vector.3", i32, i8, i8, i8, ptr }
%"class.std::shared_ptr" = type { %"class.std::__shared_ptr" }
%"class.std::__shared_ptr" = type { ptr, %"class.std::__shared_count" }
%"class.std::__shared_count" = type { ptr }
%"class.std::__cxx11::basic_string" = type { %"struct.std::__cxx11::basic_string<char>::_Alloc_hider", i64, %union.anon }
%"struct.std::__cxx11::basic_string<char>::_Alloc_hider" = type { ptr }
%union.anon = type { i64, [8 x i8] }
%"class.std::vector" = type { %"struct.std::_Vector_base" }
%"struct.std::_Vector_base" = type { %"struct.std::_Vector_base<osgeo::proj::operation::GridDescription, std::allocator<osgeo::proj::operation::GridDescription>>::_Vector_impl" }
%"struct.std::_Vector_base<osgeo::proj::operation::GridDescription, std::allocator<osgeo::proj::operation::GridDescription>>::_Vector_impl" = type { %"struct.std::_Vector_base<osgeo::proj::operation::GridDescription, std::allocator<osgeo::proj::operation::GridDescription>>::_Vector_impl_data" }
%"struct.std::_Vector_base<osgeo::proj::operation::GridDescription, std::allocator<osgeo::proj::operation::GridDescription>>::_Vector_impl_data" = type { ptr, ptr, ptr }
%"class.std::vector.3" = type { %"struct.std::_Vector_base.4" }
%"struct.std::_Vector_base.4" = type { %"struct.std::_Vector_base<PJCoordOperation, std::allocator<PJCoordOperation>>::_Vector_impl" }
%"struct.std::_Vector_base<PJCoordOperation, std::allocator<PJCoordOperation>>::_Vector_impl" = type { %"struct.std::_Vector_base<PJCoordOperation, std::allocator<PJCoordOperation>>::_Vector_impl_data" }
%"struct.std::_Vector_base<PJCoordOperation, std::allocator<PJCoordOperation>>::_Vector_impl_data" = type { ptr, ptr, ptr }
%"struct.(anonymous namespace)::pj_rouss_data" = type { double, double, double, double, double, double, double, double, double, double, double, double, double, double, double, double, double, double, double, double, double, double, double, double, double, double, double, double, double, double, double, double, double, double, ptr }
%struct.PJ_XY = type { double, double }
%struct.PJ_LP = type { double, double }

; Function Attrs: mustprogress uwtable
define internal { double, double } @_ZL15rouss_e_forward5PJ_LPP8PJconsts(double %0, double %1, ptr noundef %2) #0 {
  %4 = alloca %struct.PJ_XY, align 8
  %5 = alloca %struct.PJ_LP, align 8
  %6 = alloca ptr, align 8
  %7 = alloca ptr, align 8
  %8 = alloca double, align 8
  %9 = alloca double, align 8
  %10 = alloca double, align 8
  %11 = alloca double, align 8
  %12 = alloca double, align 8
  %13 = alloca double, align 8
  %14 = getelementptr inbounds nuw { double, double }, ptr %5, i32 0, i32 0
  store double %0, ptr %14, align 8
  %15 = getelementptr inbounds nuw { double, double }, ptr %5, i32 0, i32 1
  store double %1, ptr %15, align 8
  store ptr %2, ptr %6, align 8, !tbaa !3
  call void @llvm.memset.p0.i64(ptr align 8 %4, i8 0, i64 16, i1 false)
  call void @llvm.lifetime.start.p0(i64 8, ptr %7) #7
  %16 = load ptr, ptr %6, align 8, !tbaa !3
  %17 = getelementptr inbounds nuw %struct.PJconsts, ptr %16, i32 0, i32 11
  %18 = load ptr, ptr %17, align 8, !tbaa !43
  store ptr %18, ptr %7, align 8, !tbaa !41
  call void @llvm.lifetime.start.p0(i64 8, ptr %8) #7
  call void @llvm.lifetime.start.p0(i64 8, ptr %9) #7
  call void @llvm.lifetime.start.p0(i64 8, ptr %10) #7
  call void @llvm.lifetime.start.p0(i64 8, ptr %11) #7
  call void @llvm.lifetime.start.p0(i64 8, ptr %12) #7
  call void @llvm.lifetime.start.p0(i64 8, ptr %13) #7
  %19 = getelementptr inbounds nuw %struct.PJ_LP, ptr %5, i32 0, i32 1
  %20 = load double, ptr %19, align 8, !tbaa !88
  %21 = call double @cos(double noundef %20) #7, !tbaa !48
  store double %21, ptr %10, align 8, !tbaa !49
  %22 = getelementptr inbounds nuw %struct.PJ_LP, ptr %5, i32 0, i32 1
  %23 = load double, ptr %22, align 8, !tbaa !88
  %24 = call double @sin(double noundef %23) #7, !tbaa !48
  store double %24, ptr %11, align 8, !tbaa !49
  %25 = getelementptr inbounds nuw %struct.PJ_LP, ptr %5, i32 0, i32 1
  %26 = load double, ptr %25, align 8, !tbaa !88
  %27 = load double, ptr %11, align 8, !tbaa !49
  %28 = load double, ptr %10, align 8, !tbaa !49
  %29 = load ptr, ptr %7, align 8, !tbaa !41
  %30 = getelementptr inbounds nuw %"struct.(anonymous namespace)::pj_rouss_data", ptr %29, i32 0, i32 34
  %31 = load ptr, ptr %30, align 8, !tbaa !45
  %32 = call noundef double @_Z10proj_mdistdddPKv(double noundef %26, double noundef %27, double noundef %28, ptr noundef %31)
  %33 = load ptr, ptr %7, align 8, !tbaa !41
  %34 = getelementptr inbounds nuw %"struct.(anonymous namespace)::pj_rouss_data", ptr %33, i32 0, i32 0
  %35 = load double, ptr %34, align 8, !tbaa !50
  %36 = fsub double %32, %35
  store double %36, ptr %8, align 8, !tbaa !49
  %37 = load double, ptr %8, align 8, !tbaa !49
  %38 = load double, ptr %8, align 8, !tbaa !49
  %39 = fmul double %37, %38
  store double %39, ptr %13, align 8, !tbaa !49
  %40 = getelementptr inbounds nuw %struct.PJ_LP, ptr %5, i32 0, i32 0
  %41 = load double, ptr %40, align 8, !tbaa !90
  %42 = load double, ptr %10, align 8, !tbaa !49
  %43 = fmul double %41, %42
  %44 = load ptr, ptr %6, align 8, !tbaa !3
  %45 = getelementptr inbounds nuw %struct.PJconsts, ptr %44, i32 0, i32 27
  %46 = load double, ptr %45, align 8, !tbaa !44
  %47 = load double, ptr %11, align 8, !tbaa !49
  %48 = fmul double %46, %47
  %49 = load double, ptr %11, align 8, !tbaa !49
  %50 = fneg double %48
  %51 = call double @llvm.fmuladd.f64(double %50, double %49, double 1.000000e+00)
  %52 = call double @sqrt(double noundef %51) #7, !tbaa !48
  %53 = fdiv double %43, %52
  store double %53, ptr %9, align 8, !tbaa !49
  %54 = load double, ptr %9, align 8, !tbaa !49
  %55 = load double, ptr %9, align 8, !tbaa !49
  %56 = fmul double %54, %55
  store double %56, ptr %12, align 8, !tbaa !49
  %57 = load ptr, ptr %6, align 8, !tbaa !3
  %58 = getelementptr inbounds nuw %struct.PJconsts, ptr %57, i32 0, i32 66
  %59 = load double, ptr %58, align 8, !tbaa !91
  %60 = load double, ptr %9, align 8, !tbaa !49
  %61 = fmul double %59, %60
  %62 = load double, ptr %13, align 8, !tbaa !49
  %63 = load ptr, ptr %7, align 8, !tbaa !41
  %64 = getelementptr inbounds nuw %"struct.(anonymous namespace)::pj_rouss_data", ptr %63, i32 0, i32 1
  %65 = load double, ptr %64, align 8, !tbaa !52
  %66 = load double, ptr %13, align 8, !tbaa !49
  %67 = load ptr, ptr %7, align 8, !tbaa !41
  %68 = getelementptr inbounds nuw %"struct.(anonymous namespace)::pj_rouss_data", ptr %67, i32 0, i32 4
  %69 = load double, ptr %68, align 8, !tbaa !57
  %70 = call double @llvm.fmuladd.f64(double %66, double %69, double %65)
  %71 = call double @llvm.fmuladd.f64(double %62, double %70, double 1.000000e+00)
  %72 = load double, ptr %12, align 8, !tbaa !49
  %73 = load ptr, ptr %7, align 8, !tbaa !41
  %74 = getelementptr inbounds nuw %"struct.(anonymous namespace)::pj_rouss_data", ptr %73, i32 0, i32 2
  %75 = load double, ptr %74, align 8, !tbaa !54
  %76 = load double, ptr %8, align 8, !tbaa !49
  %77 = load ptr, ptr %7, align 8, !tbaa !41
  %78 = getelementptr inbounds nuw %"struct.(anonymous namespace)::pj_rouss_data", ptr %77, i32 0, i32 3
  %79 = load double, ptr %78, align 8, !tbaa !56
  %80 = call double @llvm.fmuladd.f64(double %76, double %79, double %75)
  %81 = load double, ptr %13, align 8, !tbaa !49
  %82 = load ptr, ptr %7, align 8, !tbaa !41
  %83 = getelementptr inbounds nuw %"struct.(anonymous namespace)::pj_rouss_data", ptr %82, i32 0, i32 5
  %84 = load double, ptr %83, align 8, !tbaa !58
  %85 = call double @llvm.fmuladd.f64(double %81, double %84, double %80)
  %86 = load double, ptr %12, align 8, !tbaa !49
  %87 = load ptr, ptr %7, align 8, !tbaa !41
  %88 = getelementptr inbounds nuw %"struct.(anonymous namespace)::pj_rouss_data", ptr %87, i32 0, i32 6
  %89 = load double, ptr %88, align 8, !tbaa !59
  %90 = call double @llvm.fmuladd.f64(double %86, double %89, double %85)
  %91 = fneg double %72
  %92 = call double @llvm.fmuladd.f64(double %91, double %90, double %71)
  %93 = fmul double %61, %92
  %94 = getelementptr inbounds nuw %struct.PJ_XY, ptr %4, i32 0, i32 0
  store double %93, ptr %94, align 8, !tbaa !92
  %95 = load ptr, ptr %6, align 8, !tbaa !3
  %96 = getelementptr inbounds nuw %struct.PJconsts, ptr %95, i32 0, i32 66
  %97 = load double, ptr %96, align 8, !tbaa !91
  %98 = load double, ptr %12, align 8, !tbaa !49
  %99 = load ptr, ptr %7, align 8, !tbaa !41
  %100 = getelementptr inbounds nuw %"struct.(anonymous namespace)::pj_rouss_data", ptr %99, i32 0, i32 7
  %101 = load double, ptr %100, align 8, !tbaa !60
  %102 = load double, ptr %12, align 8, !tbaa !49
  %103 = load ptr, ptr %7, align 8, !tbaa !41
  %104 = getelementptr inbounds nuw %"struct.(anonymous namespace)::pj_rouss_data", ptr %103, i32 0, i32 10
  %105 = load double, ptr %104, align 8, !tbaa !63
  %106 = call double @llvm.fmuladd.f64(double %102, double %105, double %101)
  %107 = load double, ptr %8, align 8, !tbaa !49
  %108 = load double, ptr %12, align 8, !tbaa !49
  %109 = load ptr, ptr %7, align 8, !tbaa !41
  %110 = getelementptr inbounds nuw %"struct.(anonymous namespace)::pj_rouss_data", ptr %109, i32 0, i32 9
  %111 = load double, ptr %110, align 8, !tbaa !62
  %112 = load double, ptr %12, align 8, !tbaa !49
  %113 = load ptr, ptr %7, align 8, !tbaa !41
  %114 = getelementptr inbounds nuw %"struct.(anonymous namespace)::pj_rouss_data", ptr %113, i32 0, i32 12
  %115 = load double, ptr %114, align 8, !tbaa !65
  %116 = fneg double %112
  %117 = call double @llvm.fmuladd.f64(double %116, double %115, double %111)
  %118 = call double @llvm.fmuladd.f64(double %108, double %117, double 1.000000e+00)
  %119 = load double, ptr %13, align 8, !tbaa !49
  %120 = load ptr, ptr %7, align 8, !tbaa !41
  %121 = getelementptr inbounds nuw %"struct.(anonymous namespace)::pj_rouss_data", ptr %120, i32 0, i32 8
  %122 = load double, ptr %121, align 8, !tbaa !61
  %123 = load double, ptr %13, align 8, !tbaa !49
  %124 = load ptr, ptr %7, align 8, !tbaa !41
  %125 = getelementptr inbounds nuw %"struct.(anonymous namespace)::pj_rouss_data", ptr %124, i32 0, i32 14
  %126 = load double, ptr %125, align 8, !tbaa !67
  %127 = call double @llvm.fmuladd.f64(double %123, double %126, double %122)
  %128 = call double @llvm.fmuladd.f64(double %119, double %127, double %118)
  %129 = load double, ptr %8, align 8, !tbaa !49
  %130 = load double, ptr %12, align 8, !tbaa !49
  %131 = fmul double %129, %130
  %132 = load ptr, ptr %7, align 8, !tbaa !41
  %133 = getelementptr inbounds nuw %"struct.(anonymous namespace)::pj_rouss_data", ptr %132, i32 0, i32 11
  %134 = load double, ptr %133, align 8, !tbaa !64
  %135 = load double, ptr %8, align 8, !tbaa !49
  %136 = load ptr, ptr %7, align 8, !tbaa !41
  %137 = getelementptr inbounds nuw %"struct.(anonymous namespace)::pj_rouss_data", ptr %136, i32 0, i32 13
  %138 = load double, ptr %137, align 8, !tbaa !66
  %139 = call double @llvm.fmuladd.f64(double %135, double %138, double %134)
  %140 = call double @llvm.fmuladd.f64(double %131, double %139, double %128)
  %141 = fmul double %107, %140
  %142 = call double @llvm.fmuladd.f64(double %98, double %106, double %141)
  %143 = fmul double %97, %142
  %144 = getelementptr inbounds nuw %struct.PJ_XY, ptr %4, i32 0, i32 1
  store double %143, ptr %144, align 8, !tbaa !94
  call void @llvm.lifetime.end.p0(i64 8, ptr %13) #7
  call void @llvm.lifetime.end.p0(i64 8, ptr %12) #7
  call void @llvm.lifetime.end.p0(i64 8, ptr %11) #7
  call void @llvm.lifetime.end.p0(i64 8, ptr %10) #7
  call void @llvm.lifetime.end.p0(i64 8, ptr %9) #7
  call void @llvm.lifetime.end.p0(i64 8, ptr %8) #7
  call void @llvm.lifetime.end.p0(i64 8, ptr %7) #7
  %145 = load { double, double }, ptr %4, align 8
  ret { double, double } %145
}