; Function Attrs: mustprogress uwtable
define internal { double, double } @_ZL15rouss_e_forward5PJ_LPP8PJconsts(double %0, double %1, ptr noundef readonly captures(none) %2) #0 {
  %4 = getelementptr inbounds nuw i8, ptr %2, i64 88
  %5 = load ptr, ptr %4, align 8, !tbaa !40
  %6 = tail call double @cos(double noundef %1) #7, !tbaa !45
  %7 = tail call double @sin(double noundef %1) #7, !tbaa !45
  %8 = getelementptr inbounds nuw i8, ptr %5, i64 272
  %9 = load ptr, ptr %8, align 8, !tbaa !42
  %10 = tail call noundef double @_Z10proj_mdistdddPKv(double noundef %1, double noundef %7, double noundef %6, ptr noundef %9)
  %11 = load double, ptr %5, align 8, !tbaa !46
  %12 = fsub double %10, %11
  %13 = fmul double %12, %12
  %14 = fmul double %0, %6
  %15 = getelementptr inbounds nuw i8, ptr %2, i64 216
  %16 = load double, ptr %15, align 8, !tbaa !41
  %17 = fneg double %7
  %18 = fmul double %16, %17
  %19 = tail call double @llvm.fmuladd.f64(double %18, double %7, double 1.000000e+00)
  %20 = tail call double @sqrt(double noundef %19) #7, !tbaa !45
  %21 = fdiv double %14, %20
  %22 = fmul double %21, %21
  %23 = getelementptr inbounds nuw i8, ptr %2, i64 488
  %24 = load double, ptr %23, align 8, !tbaa !84
  %25 = fmul double %24, %21
  %26 = getelementptr inbounds nuw i8, ptr %5, i64 8
  %27 = load double, ptr %26, align 8, !tbaa !48
  %28 = getelementptr inbounds nuw i8, ptr %5, i64 32
  %29 = load double, ptr %28, align 8, !tbaa !53
  %30 = tail call double @llvm.fmuladd.f64(double %13, double %29, double %27)
  %31 = tail call double @llvm.fmuladd.f64(double %13, double %30, double 1.000000e+00)
  %32 = getelementptr inbounds nuw i8, ptr %5, i64 16
  %33 = load double, ptr %32, align 8, !tbaa !50
  %34 = getelementptr inbounds nuw i8, ptr %5, i64 24
  %35 = load double, ptr %34, align 8, !tbaa !52
  %36 = tail call double @llvm.fmuladd.f64(double %12, double %35, double %33)
  %37 = getelementptr inbounds nuw i8, ptr %5, i64 40
  %38 = load double, ptr %37, align 8, !tbaa !54
  %39 = tail call double @llvm.fmuladd.f64(double %13, double %38, double %36)
  %40 = getelementptr inbounds nuw i8, ptr %5, i64 48
  %41 = load double, ptr %40, align 8, !tbaa !55
  %42 = tail call double @llvm.fmuladd.f64(double %22, double %41, double %39)
  %43 = fneg double %22
  %44 = tail call double @llvm.fmuladd.f64(double %43, double %42, double %31)
  %45 = fmul double %25, %44
  %46 = getelementptr inbounds nuw i8, ptr %5, i64 56
  %47 = load double, ptr %46, align 8, !tbaa !56
  %48 = getelementptr inbounds nuw i8, ptr %5, i64 80
  %49 = load double, ptr %48, align 8, !tbaa !59
  %50 = tail call double @llvm.fmuladd.f64(double %22, double %49, double %47)
  %51 = getelementptr inbounds nuw i8, ptr %5, i64 72
  %52 = load double, ptr %51, align 8, !tbaa !58
  %53 = getelementptr inbounds nuw i8, ptr %5, i64 96
  %54 = load double, ptr %53, align 8, !tbaa !61
  %55 = tail call double @llvm.fmuladd.f64(double %43, double %54, double %52)
  %56 = tail call double @llvm.fmuladd.f64(double %22, double %55, double 1.000000e+00)
  %57 = getelementptr inbounds nuw i8, ptr %5, i64 64
  %58 = load double, ptr %57, align 8, !tbaa !57
  %59 = getelementptr inbounds nuw i8, ptr %5, i64 112
  %60 = load double, ptr %59, align 8, !tbaa !63
  %61 = tail call double @llvm.fmuladd.f64(double %13, double %60, double %58)
  %62 = tail call double @llvm.fmuladd.f64(double %13, double %61, double %56)
  %63 = fmul double %12, %22
  %64 = getelementptr inbounds nuw i8, ptr %5, i64 88
  %65 = load double, ptr %64, align 8, !tbaa !60
  %66 = getelementptr inbounds nuw i8, ptr %5, i64 104
  %67 = load double, ptr %66, align 8, !tbaa !62
  %68 = tail call double @llvm.fmuladd.f64(double %12, double %67, double %65)
  %69 = tail call double @llvm.fmuladd.f64(double %63, double %68, double %62)
  %70 = fmul double %12, %69
  %71 = tail call double @llvm.fmuladd.f64(double %22, double %50, double %70)
  %72 = fmul double %24, %71
  %.fca.0.insert = insertvalue { double, double } poison, double %45, 0
  %.fca.1.insert = insertvalue { double, double } %.fca.0.insert, double %72, 1
  ret { double, double } %.fca.1.insert
}